target datalayout = "e-m:e-p270:32:32-p271:32:32-p272:64:64-i64:64-i128:128-f80:128-n8:16:32:64-S128"
target triple = "x86_64-pc-linux-gnu"

%struct.GCRef = type { i64 }
%struct.jit_State = type { %struct.GCtrace, ptr, ptr, ptr, ptr, ptr, ptr, i32, i32, i32, i8, i8, %struct.IRType1, i8, %struct.FoldState, ptr, i32, i32, i32, i32, i32, i32, i32, [1 x i32], [5 x %union.TValue], [3 x %union.TValue], ptr, i32, i32, i32, i32, ptr, ptr, i32, i32, i8, ptr, i32, i32, i16, [101 x i16], [258 x i32], [15 x i32], [16 x ptr], [64 x %struct.HotPenalty], i32, [16 x %struct.BPropEntry], i32, %struct.ScEvEntry, ptr, i32, i32, i32, ptr, i32, i32, ptr, ptr, ptr, i64, i64, %union.TValue, ptr, i32, i32 }
%struct.GCtrace = type { %struct.GCRef, i8, i8, i16, i32, i32, %struct.GCRef, ptr, i32, i32, ptr, ptr, %struct.GCRef, %struct.MRef, i32, i32, ptr, i32, i16, i16, i16, i16, i16, i16, i16, i8, i8, i8, i8 }
%struct.MRef = type { i64 }
%struct.IRType1 = type { i8 }
%struct.FoldState = type { %union.IRIns, [2 x %union.IRIns], [2 x %union.IRIns] }
%union.IRIns = type { %struct.GCRef }
%struct.HotPenalty = type { %struct.MRef, i16, i16 }
%struct.BPropEntry = type { i16, i16, i32 }
%struct.ScEvEntry = type { %struct.MRef, i16, i16, i16, i16, %struct.IRType1, i8 }
%union.TValue = type { i64 }
%struct.anon.2 = type { i16, i16, i16, i16 }
%struct.RecordFFData = type { ptr, i64, i32 }
%struct.RecordIndex = type { %union.TValue, %union.TValue, %union.TValue, %union.TValue, ptr, ptr, i32, i32, i32, i32, i32, i32 }

@.str.1 = private unnamed_addr constant [24 x i8] c"store to dead GC object\00", align 1

; Function Attrs: alwaysinline nounwind uwtable
define internal void @checklivetv(ptr noundef %0, ptr noundef %1, ptr noundef %2) #1 {
  %4 = alloca ptr, align 8
  %5 = alloca ptr, align 8
  %6 = alloca ptr, align 8
  store ptr %0, ptr %4, align 8, !tbaa !87
  store ptr %1, ptr %5, align 8, !tbaa !11
  store ptr %2, ptr %6, align 8, !tbaa !92
  ret void
}

; Function Attrs: alwaysinline nounwind uwtable
define internal void @setgcVraw(ptr noundef %0, ptr noundef %1, i32 noundef %2) #1 {
  %4 = alloca ptr, align 8
  %5 = alloca ptr, align 8
  %6 = alloca i32, align 4
  store ptr %0, ptr %4, align 8, !tbaa !11
  store ptr %1, ptr %5, align 8, !tbaa !93
  store i32 %2, ptr %6, align 4, !tbaa !9
  %7 = load ptr, ptr %5, align 8, !tbaa !93
  %8 = ptrtoint ptr %7 to i64
  %9 = load i32, ptr %6, align 4, !tbaa !9
  %10 = zext i32 %9 to i64
  %11 = shl i64 %10, 47
  %12 = or i64 %8, %11
  %13 = load ptr, ptr %4, align 8, !tbaa !11
  %14 = getelementptr inbounds nuw %struct.GCRef, ptr %13, i32 0, i32 0
  store i64 %12, ptr %14, align 8, !tbaa !13
  ret void
}

; Function Attrs: alwaysinline nounwind uwtable
define internal void @setgcV(ptr noundef %0, ptr noundef %1, ptr noundef %2, i32 noundef %3) #1 {
  %5 = alloca ptr, align 8
  %6 = alloca ptr, align 8
  %7 = alloca ptr, align 8
  %8 = alloca i32, align 4
  store ptr %0, ptr %5, align 8, !tbaa !87
  store ptr %1, ptr %6, align 8, !tbaa !11
  store ptr %2, ptr %7, align 8, !tbaa !93
  store i32 %3, ptr %8, align 4, !tbaa !9
  %9 = load ptr, ptr %6, align 8, !tbaa !11
  %10 = load ptr, ptr %7, align 8, !tbaa !93
  %11 = load i32, ptr %8, align 4, !tbaa !9
  call void @setgcVraw(ptr noundef %9, ptr noundef %10, i32 noundef %11)
  %12 = load ptr, ptr %5, align 8, !tbaa !87
  %13 = load ptr, ptr %6, align 8, !tbaa !11
  call void @checklivetv(ptr noundef %12, ptr noundef %13, ptr noundef @.str.1)
  ret void
}

; Function Attrs: alwaysinline nounwind uwtable
define internal void @lj_ir_set_(ptr noundef %0, i16 noundef zeroext %1, i16 noundef zeroext %2, i16 noundef zeroext %3) #1 {
  %5 = alloca ptr, align 8
  %6 = alloca i16, align 2
  %7 = alloca i16, align 2
  %8 = alloca i16, align 2
  store ptr %0, ptr %5, align 8, !tbaa !4
  store i16 %1, ptr %6, align 2, !tbaa !14
  store i16 %2, ptr %7, align 2, !tbaa !14
  store i16 %3, ptr %8, align 2, !tbaa !14
  %9 = load i16, ptr %6, align 2, !tbaa !14
  %10 = load ptr, ptr %5, align 8, !tbaa !4
  %11 = getelementptr inbounds nuw %struct.jit_State, ptr %10, i32 0, i32 14
  %12 = getelementptr inbounds nuw %struct.FoldState, ptr %11, i32 0, i32 0
  %13 = getelementptr inbounds nuw %struct.anon.2, ptr %12, i32 0, i32 2
  store i16 %9, ptr %13, align 4, !tbaa !13
  %14 = load i16, ptr %7, align 2, !tbaa !14
  %15 = load ptr, ptr %5, align 8, !tbaa !4
  %16 = getelementptr inbounds nuw %struct.jit_State, ptr %15, i32 0, i32 14
  %17 = getelementptr inbounds nuw %struct.FoldState, ptr %16, i32 0, i32 0
  %18 = getelementptr inbounds nuw %struct.anon.2, ptr %17, i32 0, i32 0
  store i16 %14, ptr %18, align 8, !tbaa !13
  %19 = load i16, ptr %8, align 2, !tbaa !14
  %20 = load ptr, ptr %5, align 8, !tbaa !4
  %21 = getelementptr inbounds nuw %struct.jit_State, ptr %20, i32 0, i32 14
  %22 = getelementptr inbounds nuw %struct.FoldState, ptr %21, i32 0, i32 0
  %23 = getelementptr inbounds nuw %struct.anon.2, ptr %22, i32 0, i32 1
  store i16 %19, ptr %23, align 2, !tbaa !13
  ret void
}

; Function Attrs: alwaysinline nounwind uwtable
define internal void @settabV(ptr noundef %0, ptr noundef %1, ptr noundef %2) #1 {
  %4 = alloca ptr, align 8
  %5 = alloca ptr, align 8
  %6 = alloca ptr, align 8
  store ptr %0, ptr %4, align 8, !tbaa !87
  store ptr %1, ptr %5, align 8, !tbaa !11
  store ptr %2, ptr %6, align 8, !tbaa !75
  %7 = load ptr, ptr %4, align 8, !tbaa !87
  %8 = load ptr, ptr %5, align 8, !tbaa !11
  %9 = load ptr, ptr %6, align 8, !tbaa !75
  call void @setgcV(ptr noundef %7, ptr noundef %8, ptr noundef %9, i32 noundef -12)
  ret void
}

; Function Attrs: alwaysinline nounwind uwtable
define internal void @setintV(ptr noundef %0, i32 noundef %1) #1 {
  %3 = alloca ptr, align 8
  %4 = alloca i32, align 4
  store ptr %0, ptr %3, align 8, !tbaa !11
  store i32 %1, ptr %4, align 4, !tbaa !9
  %5 = load i32, ptr %4, align 4, !tbaa !9
  %6 = sitofp i32 %5 to double
  %7 = load ptr, ptr %3, align 8, !tbaa !11
  store double %6, ptr %7, align 8, !tbaa !13
  ret void
}

; Function Attrs: alwaysinline nounwind uwtable
define internal i32 @numberVint(ptr noundef %0) #1 {
  %2 = alloca ptr, align 8
  store ptr %0, ptr %2, align 8, !tbaa !11
  %3 = load ptr, ptr %2, align 8, !tbaa !11
  %4 = load double, ptr %3, align 8, !tbaa !13
  %5 = fptosi double %4 to i32
  ret i32 %5
}

; Function Attrs: nounwind uwtable
define internal void @recff_ipairs_aux(ptr noundef %0, ptr noundef %1) #0 {
  %3 = alloca ptr, align 8
  %4 = alloca ptr, align 8
  %5 = alloca %struct.RecordIndex, align 8
  store ptr %0, ptr %3, align 8, !tbaa !4
  store ptr %1, ptr %4, align 8, !tbaa !46
  call void @llvm.lifetime.start.p0(i64 72, ptr %5) #9
  %6 = load ptr, ptr %3, align 8, !tbaa !4
  %7 = getelementptr inbounds nuw %struct.jit_State, ptr %6, i32 0, i32 6
  %8 = load ptr, ptr %7, align 8, !tbaa !41
  %9 = getelementptr inbounds i32, ptr %8, i64 0
  %10 = load i32, ptr %9, align 4, !tbaa !9
  %11 = getelementptr inbounds nuw %struct.RecordIndex, ptr %5, i32 0, i32 6
  store i32 %10, ptr %11, align 8, !tbaa !50
  %12 = getelementptr inbounds nuw %struct.RecordIndex, ptr %5, i32 0, i32 6
  %13 = load i32, ptr %12, align 8, !tbaa !50
  %14 = and i32 %13, 520093696
  %15 = icmp eq i32 %14, 184549376
  br i1 %15, label %16, label %88

16:                                               ; preds = %2
  %17 = load ptr, ptr %4, align 8, !tbaa !46
  %18 = getelementptr inbounds nuw %struct.RecordFFData, ptr %17, i32 0, i32 0
  %19 = load ptr, ptr %18, align 8, !tbaa !40
  %20 = getelementptr inbounds %union.TValue, ptr %19, i64 1
  %21 = load i64, ptr %20, align 8, !tbaa !13
  %22 = ashr i64 %21, 47
  %23 = trunc i64 %22 to i32
  %24 = icmp ule i32 %23, -14
  br i1 %24, label %27, label %25

25:                                               ; preds = %16
  %26 = load ptr, ptr %3, align 8, !tbaa !4
  call void @lj_trace_err(ptr noundef %26, i32 noundef 11) #10
  unreachable

27:                                               ; preds = %16
  %28 = getelementptr inbounds nuw %struct.RecordIndex, ptr %5, i32 0, i32 1
  %29 = load ptr, ptr %4, align 8, !tbaa !46
  %30 = getelementptr inbounds nuw %struct.RecordFFData, ptr %29, i32 0, i32 0
  %31 = load ptr, ptr %30, align 8, !tbaa !40
  %32 = getelementptr inbounds %union.TValue, ptr %31, i64 1
  %33 = call i32 @numberVint(ptr noundef %32)
  %34 = add nsw i32 %33, 1
  call void @setintV(ptr noundef %28, i32 noundef %34)
  %35 = load ptr, ptr %3, align 8, !tbaa !4
  %36 = getelementptr inbounds nuw %struct.jit_State, ptr %35, i32 0, i32 2
  %37 = load ptr, ptr %36, align 8, !tbaa !37
  %38 = getelementptr inbounds nuw %struct.RecordIndex, ptr %5, i32 0, i32 0
  %39 = load ptr, ptr %4, align 8, !tbaa !46
  %40 = getelementptr inbounds nuw %struct.RecordFFData, ptr %39, i32 0, i32 0
  %41 = load ptr, ptr %40, align 8, !tbaa !40
  %42 = getelementptr inbounds %union.TValue, ptr %41, i64 0
  %43 = getelementptr inbounds nuw %struct.GCRef, ptr %42, i32 0, i32 0
  %44 = load i64, ptr %43, align 8, !tbaa !13
  %45 = and i64 %44, 140737488355327
  %46 = inttoptr i64 %45 to ptr
  call void @settabV(ptr noundef %37, ptr noundef %38, ptr noundef %46)
  %47 = getelementptr inbounds nuw %struct.RecordIndex, ptr %5, i32 0, i32 8
  store i32 0, ptr %47, align 8, !tbaa !56
  %48 = getelementptr inbounds nuw %struct.RecordIndex, ptr %5, i32 0, i32 11
  store i32 0, ptr %48, align 4, !tbaa !54
  %49 = load ptr, ptr %3, align 8, !tbaa !4
  %50 = load ptr, ptr %3, align 8, !tbaa !4
  %51 = getelementptr inbounds nuw %struct.jit_State, ptr %50, i32 0, i32 6
  %52 = load ptr, ptr %51, align 8, !tbaa !41
  %53 = getelementptr inbounds i32, ptr %52, i64 1
  %54 = load i32, ptr %53, align 4, !tbaa !9
  %55 = call i32 @lj_opt_narrow_toint(ptr noundef %49, i32 noundef %54)
  %56 = getelementptr inbounds nuw %struct.RecordIndex, ptr %5, i32 0, i32 7
  store i32 %55, ptr %56, align 4, !tbaa !53
  %57 = load ptr, ptr %3, align 8, !tbaa !4
  %58 = getelementptr inbounds nuw %struct.RecordIndex, ptr %5, i32 0, i32 7
  %59 = load i32, ptr %58, align 4, !tbaa !53
  %60 = trunc i32 %59 to i16
  %61 = load ptr, ptr %3, align 8, !tbaa !4
  %62 = call i32 @lj_ir_kint(ptr noundef %61, i32 noundef 1)
  %63 = trunc i32 %62 to i16
  call void @lj_ir_set_(ptr noundef %57, i16 noundef zeroext 10515, i16 noundef zeroext %60, i16 noundef zeroext %63)
  %64 = load ptr, ptr %3, align 8, !tbaa !4
  %65 = call i32 @lj_opt_fold(ptr noundef %64)
  %66 = getelementptr inbounds nuw %struct.RecordIndex, ptr %5, i32 0, i32 7
  store i32 %65, ptr %66, align 4, !tbaa !53
  %67 = load ptr, ptr %3, align 8, !tbaa !4
  %68 = getelementptr inbounds nuw %struct.jit_State, ptr %67, i32 0, i32 6
  %69 = load ptr, ptr %68, align 8, !tbaa !41
  %70 = getelementptr inbounds i32, ptr %69, i64 0
  store i32 %65, ptr %70, align 4, !tbaa !9
  %71 = load ptr, ptr %3, align 8, !tbaa !4
  %72 = call i32 @lj_record_idx(ptr noundef %71, ptr noundef %5)
  %73 = load ptr, ptr %3, align 8, !tbaa !4
  %74 = getelementptr inbounds nuw %struct.jit_State, ptr %73, i32 0, i32 6
  %75 = load ptr, ptr %74, align 8, !tbaa !41
  %76 = getelementptr inbounds i32, ptr %75, i64 1
  store i32 %72, ptr %76, align 4, !tbaa !9
  %77 = load ptr, ptr %3, align 8, !tbaa !4
  %78 = getelementptr inbounds nuw %struct.jit_State, ptr %77, i32 0, i32 6
  %79 = load ptr, ptr %78, align 8, !tbaa !41
  %80 = getelementptr inbounds i32, ptr %79, i64 1
  %81 = load i32, ptr %80, align 4, !tbaa !9
  %82 = and i32 %81, 520093696
  %83 = icmp eq i32 %82, 0
  %84 = select i1 %83, i32 0, i32 2
  %85 = sext i32 %84 to i64
  %86 = load ptr, ptr %4, align 8, !tbaa !46
  %87 = getelementptr inbounds nuw %struct.RecordFFData, ptr %86, i32 0, i32 1
  store i64 %85, ptr %87, align 8, !tbaa !36
  br label %88

88:                                               ; preds = %27, %2
  call void @llvm.lifetime.end.p0(i64 72, ptr %5) #9
  ret void
}