; Function Attrs: nounwind uwtable
define internal void @recff_ipairs_aux(ptr noundef %0, ptr noundef captures(none) %1) #0 {
  %3 = alloca %struct.RecordIndex, align 8
  call void @llvm.lifetime.start.p0(i64 72, ptr nonnull %3) #9
  %4 = getelementptr inbounds nuw i8, ptr %0, i64 160
  %5 = load ptr, ptr %4, align 8, !tbaa !37
  %6 = load i32, ptr %5, align 4, !tbaa !39
  %7 = getelementptr inbounds nuw i8, ptr %3, i64 48
  store i32 %6, ptr %7, align 8, !tbaa !47
  %8 = and i32 %6, 520093696
  %9 = icmp eq i32 %8, 184549376
  br i1 %9, label %10, label %46

10:                                               ; preds = %2
  %11 = load ptr, ptr %1, align 8, !tbaa !36
  %12 = getelementptr inbounds nuw i8, ptr %11, i64 8
  %13 = load i64, ptr %12, align 8
  %14 = icmp ult i64 %13, -1829587348619264
  br i1 %14, label %16, label %15

15:                                               ; preds = %10
  tail call void @lj_trace_err(ptr noundef nonnull %0, i32 noundef 11) #10
  unreachable

16:                                               ; preds = %10
  %17 = bitcast i64 %13 to double
  %18 = getelementptr inbounds nuw i8, ptr %3, i64 8
  %19 = fptosi double %17 to i32
  %20 = add nsw i32 %19, 1
  %21 = sitofp i32 %20 to double
  store double %21, ptr %18, align 8, !tbaa !4
  %22 = load i64, ptr %11, align 8, !tbaa !4
  %23 = and i64 %22, 140737488355327
  %24 = or disjoint i64 %23, -1688849860263936
  store i64 %24, ptr %3, align 8, !tbaa !4
  %25 = getelementptr inbounds nuw i8, ptr %3, i64 56
  store i32 0, ptr %25, align 8, !tbaa !53
  %26 = getelementptr inbounds nuw i8, ptr %3, i64 68
  store i32 0, ptr %26, align 4, !tbaa !51
  %27 = getelementptr inbounds nuw i8, ptr %5, i64 4
  %28 = load i32, ptr %27, align 4, !tbaa !39
  %29 = tail call i32 @lj_opt_narrow_toint(ptr noundef nonnull %0, i32 noundef %28) #9
  %30 = getelementptr inbounds nuw i8, ptr %3, i64 52
  %31 = trunc i32 %29 to i16
  %32 = tail call i32 @lj_ir_kint(ptr noundef nonnull %0, i32 noundef 1) #9
  %33 = trunc i32 %32 to i16
  %34 = getelementptr inbounds nuw i8, ptr %0, i64 184
  %35 = getelementptr inbounds nuw i8, ptr %0, i64 188
  store i16 10515, ptr %35, align 4, !tbaa !4
  store i16 %31, ptr %34, align 8, !tbaa !4
  %36 = getelementptr inbounds nuw i8, ptr %0, i64 186
  store i16 %33, ptr %36, align 2, !tbaa !4
  %37 = tail call i32 @lj_opt_fold(ptr noundef nonnull %0) #9
  store i32 %37, ptr %30, align 4, !tbaa !50
  %38 = load ptr, ptr %4, align 8, !tbaa !37
  store i32 %37, ptr %38, align 4, !tbaa !39
  %39 = call i32 @lj_record_idx(ptr noundef nonnull %0, ptr noundef nonnull %3) #9
  %40 = load ptr, ptr %4, align 8, !tbaa !37
  %41 = getelementptr inbounds nuw i8, ptr %40, i64 4
  store i32 %39, ptr %41, align 4, !tbaa !39
  %42 = and i32 %39, 520093696
  %43 = icmp eq i32 %42, 0
  %44 = select i1 %43, i64 0, i64 2
  %45 = getelementptr inbounds nuw i8, ptr %1, i64 8
  store i64 %44, ptr %45, align 8, !tbaa !32
  br label %46

46:                                               ; preds = %16, %2
  call void @llvm.lifetime.end.p0(i64 72, ptr nonnull %3) #9
  ret void
}